; Function Attrs: mustprogress noreturn nounwind uwtable
define hidden void @_ZNK5ZPage9fatal_msgEPKc(ptr noundef nonnull align 8 dereferenceable(192) %0, ptr noundef %1) local_unnamed_addr #7 align 2 {
  %3 = alloca %class.stringStream, align 8
  call void @_ZN12stringStreamC1Em(ptr noundef nonnull align 8 dereferenceable(129) %3, i64 noundef 0) #13
  call void @_ZNK5ZPage12print_on_msgEP12outputStreamPKc(ptr noundef nonnull align 8 dereferenceable(192) %0, ptr noundef nonnull %3, ptr noundef %1)
  %4 = load ptr, ptr @g_assert_poison, align 8
  store i8 88, ptr %4, align 1
  %5 = getelementptr inbounds i8, ptr %3, i64 56
  %6 = load ptr, ptr %5, align 8
  call void (i32, ptr, i32, ptr, ...) @_Z12report_fatal11VMErrorTypePKciS1_z(i32 noundef -536870912, ptr noundef nonnull @.str, i32 noundef 316, ptr noundef nonnull @.str.18, ptr noundef %6) #12
  unreachable
}